target datalayout = "e-m:e-p270:32:32-p271:32:32-p272:64:64-i64:64-i128:128-f80:128-n8:16:32:64-S128"
target triple = "x86_64-pc-linux-gnu"

%struct.Font = type { i32, i32, i32, %struct.Texture, ptr, ptr }
%struct.Texture = type { i32, i32, i32, i32, i32 }
%struct.Color = type { i8, i8, i8, i8 }
%struct.Vector2 = type { float, float }

; Function Attrs: nounwind uwtable
define void @DrawTextPro(ptr noundef byval(%struct.Font) align 8 %0, ptr noundef %1, <2 x float> %2, <2 x float> %3, float noundef %4, float noundef %5, float noundef %6, i32 %7) #3 {
  %9 = alloca %struct.Vector2, align 4
  %10 = alloca %struct.Vector2, align 4
  %11 = alloca %struct.Color, align 1
  %12 = alloca ptr, align 8
  %13 = alloca float, align 4
  %14 = alloca float, align 4
  %15 = alloca float, align 4
  %16 = alloca %struct.Vector2, align 4
  store <2 x float> %2, ptr %9, align 4
  store <2 x float> %3, ptr %10, align 4
  store i32 %7, ptr %11, align 1
  store ptr %1, ptr %12, align 8
  store float %4, ptr %13, align 4
  store float %5, ptr %14, align 4
  store float %6, ptr %15, align 4
  call void @rlPushMatrix()
  %17 = getelementptr inbounds nuw %struct.Vector2, ptr %9, i32 0, i32 0
  %18 = load float, ptr %17, align 4
  %19 = getelementptr inbounds nuw %struct.Vector2, ptr %9, i32 0, i32 1
  %20 = load float, ptr %19, align 4
  call void @rlTranslatef(float noundef %18, float noundef %20, float noundef 0.000000e+00)
  %21 = load float, ptr %13, align 4
  call void @rlRotatef(float noundef %21, float noundef 0.000000e+00, float noundef 0.000000e+00, float noundef 1.000000e+00)
  %22 = getelementptr inbounds nuw %struct.Vector2, ptr %10, i32 0, i32 0
  %23 = load float, ptr %22, align 4
  %24 = fneg float %23
  %25 = getelementptr inbounds nuw %struct.Vector2, ptr %10, i32 0, i32 1
  %26 = load float, ptr %25, align 4
  %27 = fneg float %26
  call void @rlTranslatef(float noundef %24, float noundef %27, float noundef 0.000000e+00)
  %28 = load ptr, ptr %12, align 8
  %29 = getelementptr inbounds nuw %struct.Vector2, ptr %16, i32 0, i32 0
  store float 0.000000e+00, ptr %29, align 4
  %30 = getelementptr inbounds nuw %struct.Vector2, ptr %16, i32 0, i32 1
  store float 0.000000e+00, ptr %30, align 4
  %31 = load float, ptr %14, align 4
  %32 = load float, ptr %15, align 4
  %33 = load <2 x float>, ptr %16, align 4
  %34 = load i32, ptr %11, align 1
  call void @DrawTextEx(ptr noundef byval(%struct.Font) align 8 %0, ptr noundef %28, <2 x float> %33, float noundef %31, float noundef %32, i32 %34)
  call void @rlPopMatrix()
  ret void
}