; Function Attrs: nounwind uwtable
define void @DrawTextPro(ptr noundef readonly byval(%struct.Font) align 8 captures(none) %0, ptr noundef captures(address_is_null) %1, <2 x float> %2, <2 x float> %3, float noundef %4, float noundef %5, float noundef %6, i32 %7) local_unnamed_addr #6 {
  tail call void @rlPushMatrix() #41
  %.sroa.07.0.vec.extract = extractelement <2 x float> %2, i64 0
  %.sroa.07.4.vec.extract = extractelement <2 x float> %2, i64 1
  tail call void @rlTranslatef(float noundef %.sroa.07.0.vec.extract, float noundef %.sroa.07.4.vec.extract, float noundef 0.000000e+00) #41
  tail call void @rlRotatef(float noundef %4, float noundef 0.000000e+00, float noundef 0.000000e+00, float noundef 1.000000e+00) #41
  %.sroa.06.0.vec.extract = extractelement <2 x float> %3, i64 0
  %9 = fneg float %.sroa.06.0.vec.extract
  %.sroa.06.4.vec.extract = extractelement <2 x float> %3, i64 1
  %10 = fneg float %.sroa.06.4.vec.extract
  tail call void @rlTranslatef(float noundef %9, float noundef %10, float noundef 0.000000e+00) #41
  tail call void @DrawTextEx(ptr noundef nonnull byval(%struct.Font) align 8 %0, ptr noundef %1, <2 x float> zeroinitializer, float noundef %5, float noundef %6, i32 %7)
  tail call void @rlPopMatrix() #41
  ret void
}